; Function Attrs: mustprogress uwtable
define noundef zeroext i1 @_ZNK3g2o13VertexPointXY5writeERSo(ptr noundef nonnull readonly align 16 captures(none) dereferenceable(200) %0, ptr noundef nonnull align 8 dereferenceable(8) %1) unnamed_addr #4 align 2 personality ptr @__gxx_personality_v0 {
_ZN3g2o8internal11writeVectorIN5Eigen6MatrixIdLi2ELi1ELi0ELi2ELi1EEEEEbRSoRKNS2_9DenseBaseIT_EE.exit.critedge:
  %2 = getelementptr inbounds nuw i8, ptr %0, i64 160
  %3 = load double, ptr %2, align 16, !tbaa !33
  %4 = tail call noundef nonnull align 8 dereferenceable(8) ptr @_ZNSo9_M_insertIdEERSoT_(ptr noundef nonnull align 8 dereferenceable(8) %1, double noundef %3)
  %5 = tail call noundef nonnull align 8 dereferenceable(8) ptr @_ZSt16__ostream_insertIcSt11char_traitsIcEERSt13basic_ostreamIT_T0_ES6_PKS3_l(ptr noundef nonnull align 8 dereferenceable(8) %4, ptr noundef nonnull @.str, i64 noundef 1)
  %6 = getelementptr inbounds nuw i8, ptr %0, i64 168
  %7 = load double, ptr %6, align 8, !tbaa !33
  %8 = tail call noundef nonnull align 8 dereferenceable(8) ptr @_ZNSo9_M_insertIdEERSoT_(ptr noundef nonnull align 8 dereferenceable(8) %1, double noundef %7)
  %9 = tail call noundef nonnull align 8 dereferenceable(8) ptr @_ZSt16__ostream_insertIcSt11char_traitsIcEERSt13basic_ostreamIT_T0_ES6_PKS3_l(ptr noundef nonnull align 8 dereferenceable(8) %8, ptr noundef nonnull @.str, i64 noundef 1)
  %10 = load ptr, ptr %1, align 8, !tbaa !31
  %11 = getelementptr i8, ptr %10, i64 -24
  %12 = load i64, ptr %11, align 8
  %13 = getelementptr inbounds i8, ptr %1, i64 %12
  %14 = getelementptr inbounds nuw i8, ptr %13, i64 32
  %15 = load i32, ptr %14, align 8, !tbaa !35
  %16 = icmp eq i32 %15, 0
  ret i1 %16
}